target datalayout = "e-m:e-p270:32:32-p271:32:32-p272:64:64-i64:64-i128:128-f80:128-n8:16:32:64-S128"
target triple = "x86_64-pc-linux-gnu"

%"class.icu_77::UnicodeString" = type { %"class.icu_77::Replaceable", %"union.icu_77::UnicodeString::StackBufferOrFields" }
%"class.icu_77::Replaceable" = type { %"class.icu_77::UObject" }
%"class.icu_77::UObject" = type { ptr }
%"union.icu_77::UnicodeString::StackBufferOrFields" = type { %struct.anon.0, [32 x i8] }
%struct.anon.0 = type { i16, i32, i32, ptr }
%"class.icu_77::RuleBasedNumberFormat" = type { %"class.icu_77::NumberFormat.base", ptr, ptr, i32, ptr, %"class.icu_77::Locale", ptr, ptr, ptr, ptr, i32, i8, ptr, ptr, %"class.icu_77::UnicodeString", i8, i8, i8, ptr }
%"class.icu_77::NumberFormat.base" = type <{ %"class.icu_77::Format", i8, [3 x i8], i32, i32, i32, i32, i8, i8, [4 x i16], [2 x i8], i32 }>
%"class.icu_77::Format" = type { %"class.icu_77::UObject", ptr, ptr }
%"class.icu_77::Locale" = type <{ %"class.icu_77::UObject", [12 x i8], [6 x i8], [4 x i8], [2 x i8], i32, [4 x i8], ptr, [157 x i8], [3 x i8], ptr, i8, [7 x i8] }>
%"class.icu_77::ConstChar16Ptr" = type { ptr }

@.str.1 = private unnamed_addr constant [1 x i8] zeroinitializer, align 1

; Function Attrs: inlinehint mustprogress nounwind uwtable
define linkonce_odr noundef i32 @_ZNK6icu_7713UnicodeString14getShortLengthEv(ptr noundef nonnull align 8 dereferenceable(64) %0) #4 comdat align 2 {
  %2 = alloca ptr, align 8
  store ptr %0, ptr %2, align 8, !tbaa !76
  %3 = load ptr, ptr %2, align 8
  %4 = getelementptr inbounds nuw %"class.icu_77::UnicodeString", ptr %3, i32 0, i32 1
  %5 = getelementptr inbounds nuw %struct.anon.0, ptr %4, i32 0, i32 0
  %6 = load i16, ptr %5, align 8, !tbaa !39
  %7 = sext i16 %6 to i32
  %8 = ashr i32 %7, 5
  ret i32 %8
}

; Function Attrs: inlinehint mustprogress nounwind uwtable
define linkonce_odr noundef signext i8 @_ZNK6icu_7713UnicodeString14hasShortLengthEv(ptr noundef nonnull align 8 dereferenceable(64) %0) #4 comdat align 2 {
  %2 = alloca ptr, align 8
  store ptr %0, ptr %2, align 8, !tbaa !76
  %3 = load ptr, ptr %2, align 8
  %4 = getelementptr inbounds nuw %"class.icu_77::UnicodeString", ptr %3, i32 0, i32 1
  %5 = getelementptr inbounds nuw %struct.anon.0, ptr %4, i32 0, i32 0
  %6 = load i16, ptr %5, align 8, !tbaa !39
  %7 = sext i16 %6 to i32
  %8 = icmp sge i32 %7, 0
  %9 = zext i1 %8 to i8
  ret i8 %9
}

; Function Attrs: inlinehint mustprogress uwtable
define linkonce_odr noundef i32 @_ZNK6icu_7713UnicodeString6lengthEv(ptr noundef nonnull align 8 dereferenceable(64) %0) #6 comdat align 2 {
  %2 = alloca ptr, align 8
  store ptr %0, ptr %2, align 8, !tbaa !76
  %3 = load ptr, ptr %2, align 8
  %4 = call noundef signext i8 @_ZNK6icu_7713UnicodeString14hasShortLengthEv(ptr noundef nonnull align 8 dereferenceable(64) %3)
  %5 = icmp ne i8 %4, 0
  br i1 %5, label %6, label %8

6:                                                ; preds = %1
  %7 = call noundef i32 @_ZNK6icu_7713UnicodeString14getShortLengthEv(ptr noundef nonnull align 8 dereferenceable(64) %3)
  br label %12

8:                                                ; preds = %1
  %9 = getelementptr inbounds nuw %"class.icu_77::UnicodeString", ptr %3, i32 0, i32 1
  %10 = getelementptr inbounds nuw %struct.anon.0, ptr %9, i32 0, i32 1
  %11 = load i32, ptr %10, align 4, !tbaa !39
  br label %12

12:                                               ; preds = %8, %6
  %13 = phi i32 [ %7, %6 ], [ %11, %8 ]
  ret i32 %13
}

; Function Attrs: inlinehint mustprogress nounwind uwtable
define linkonce_odr void @_ZN6icu_7714ConstChar16PtrD2Ev(ptr noundef nonnull align 8 dereferenceable(8) %0) unnamed_addr #4 comdat align 2 {
  %2 = alloca ptr, align 8
  store ptr %0, ptr %2, align 8, !tbaa !146
  %3 = load ptr, ptr %2, align 8
  %4 = getelementptr inbounds nuw %"class.icu_77::ConstChar16Ptr", ptr %3, i32 0, i32 0
  %5 = load ptr, ptr %4, align 8, !tbaa !148
  call void asm sideeffect "", "rm,~{memory},~{dirflag},~{fpsr},~{flags}"(ptr %5) #14, !srcloc !150
  ret void
}

; Function Attrs: inlinehint mustprogress nounwind uwtable
define linkonce_odr void @_ZN6icu_7714ConstChar16PtrC2EPKDs(ptr noundef nonnull align 8 dereferenceable(8) %0, ptr noundef %1) unnamed_addr #4 comdat align 2 {
  %3 = alloca ptr, align 8
  %4 = alloca ptr, align 8
  store ptr %0, ptr %3, align 8, !tbaa !146
  store ptr %1, ptr %4, align 8, !tbaa !16
  %5 = load ptr, ptr %3, align 8
  %6 = getelementptr inbounds nuw %"class.icu_77::ConstChar16Ptr", ptr %5, i32 0, i32 0
  %7 = load ptr, ptr %4, align 8, !tbaa !16
  store ptr %7, ptr %6, align 8, !tbaa !148
  ret void
}

; Function Attrs: inlinehint mustprogress nounwind uwtable
define internal noundef signext i8 @_ZL9U_FAILURE10UErrorCode(i32 noundef %0) #4 {
  %2 = alloca i32, align 4
  store i32 %0, ptr %2, align 4, !tbaa !28
  %3 = load i32, ptr %2, align 4, !tbaa !28
  %4 = icmp sgt i32 %3, 0
  %5 = zext i1 %4 to i8
  ret i8 %5
}

; Function Attrs: mustprogress uwtable
define void @_ZNK6icu_7721RuleBasedNumberFormat27getRuleSetDisplayNameLocaleEiR10UErrorCode(ptr dead_on_unwind noalias writable sret(%"class.icu_77::Locale") align 8 %0, ptr noundef nonnull align 8 dereferenceable(456) %1, i32 noundef %2, ptr noundef nonnull align 4 dereferenceable(4) %3) unnamed_addr #2 align 2 personality ptr @__gxx_personality_v0 {
  %5 = alloca ptr, align 8
  %6 = alloca ptr, align 8
  %7 = alloca i32, align 4
  %8 = alloca ptr, align 8
  %9 = alloca %"class.icu_77::UnicodeString", align 8
  %10 = alloca %"class.icu_77::ConstChar16Ptr", align 8
  %11 = alloca ptr, align 8
  %12 = alloca i32, align 4
  %13 = alloca [64 x i8], align 16
  %14 = alloca i32, align 4
  %15 = alloca ptr, align 8
  %16 = alloca i32, align 4
  %17 = alloca i1, align 1
  %18 = alloca i1, align 1
  store ptr %0, ptr %5, align 8
  store ptr %1, ptr %6, align 8, !tbaa !3
  store i32 %2, ptr %7, align 4, !tbaa !12
  store ptr %3, ptr %8, align 8, !tbaa !51
  %19 = load ptr, ptr %6, align 8
  %20 = load ptr, ptr %8, align 8, !tbaa !51
  %21 = load i32, ptr %20, align 4, !tbaa !28
  %22 = call noundef signext i8 @_ZL9U_FAILURE10UErrorCode(i32 noundef %21)
  %23 = icmp ne i8 %22, 0
  br i1 %23, label %24, label %25

24:                                               ; preds = %4
  call void @_ZN6icu_776LocaleC1EPKcS2_S2_S2_(ptr noundef nonnull align 8 dereferenceable(217) %0, ptr noundef @.str.1, ptr noundef null, ptr noundef null, ptr noundef null)
  br label %111

25:                                               ; preds = %4
  %26 = getelementptr inbounds nuw %"class.icu_77::RuleBasedNumberFormat", ptr %19, i32 0, i32 13
  %27 = load ptr, ptr %26, align 8, !tbaa !114
  %28 = icmp ne ptr %27, null
  br i1 %28, label %29, label %106

29:                                               ; preds = %25
  %30 = load i32, ptr %7, align 4, !tbaa !12
  %31 = icmp sge i32 %30, 0
  br i1 %31, label %32, label %106

32:                                               ; preds = %29
  %33 = load i32, ptr %7, align 4, !tbaa !12
  %34 = getelementptr inbounds nuw %"class.icu_77::RuleBasedNumberFormat", ptr %19, i32 0, i32 13
  %35 = load ptr, ptr %34, align 8, !tbaa !114
  %36 = load ptr, ptr %35, align 8, !tbaa !10
  %37 = getelementptr inbounds ptr, ptr %36, i64 5
  %38 = load ptr, ptr %37, align 8
  %39 = call noundef i32 %38(ptr noundef nonnull align 8 dereferenceable(12) %35)
  %40 = icmp slt i32 %33, %39
  br i1 %40, label %41, label %106

41:                                               ; preds = %32
  call void @llvm.lifetime.start.p0(i64 64, ptr %9) #14
  %42 = getelementptr inbounds nuw %"class.icu_77::RuleBasedNumberFormat", ptr %19, i32 0, i32 13
  %43 = load ptr, ptr %42, align 8, !tbaa !114
  %44 = load i32, ptr %7, align 4, !tbaa !12
  %45 = load ptr, ptr %43, align 8, !tbaa !10
  %46 = getelementptr inbounds ptr, ptr %45, i64 6
  %47 = load ptr, ptr %46, align 8
  %48 = call noundef ptr %47(ptr noundef nonnull align 8 dereferenceable(12) %43, i32 noundef %44)
  call void @_ZN6icu_7714ConstChar16PtrC2EPKDs(ptr noundef nonnull align 8 dereferenceable(8) %10, ptr noundef %48)
  invoke void @_ZN6icu_7713UnicodeStringC1EaNS_14ConstChar16PtrEi(ptr noundef nonnull align 8 dereferenceable(64) %9, i8 noundef signext 1, ptr noundef %10, i32 noundef -1)
          to label %49 unwind label %66

49:                                               ; preds = %41
  call void @_ZN6icu_7714ConstChar16PtrD2Ev(ptr noundef nonnull align 8 dereferenceable(8) %10) #14
  call void @llvm.lifetime.start.p0(i64 64, ptr %13) #14
  call void @llvm.lifetime.start.p0(i64 4, ptr %14) #14
  %50 = invoke noundef i32 @_ZNK6icu_7713UnicodeString6lengthEv(ptr noundef nonnull align 8 dereferenceable(64) %9)
          to label %51 unwind label %70

51:                                               ; preds = %49
  %52 = add nsw i32 %50, 1
  store i32 %52, ptr %14, align 4, !tbaa !12
  call void @llvm.lifetime.start.p0(i64 8, ptr %15) #14
  %53 = getelementptr inbounds [64 x i8], ptr %13, i64 0, i64 0
  store ptr %53, ptr %15, align 8, !tbaa !48
  %54 = load i32, ptr %14, align 4, !tbaa !12
  %55 = icmp sgt i32 %54, 64
  br i1 %55, label %56, label %79

56:                                               ; preds = %51
  %57 = load i32, ptr %14, align 4, !tbaa !12
  %58 = sext i32 %57 to i64
  %59 = invoke noalias ptr @uprv_malloc_77(i64 noundef %58) #15
          to label %60 unwind label %74

60:                                               ; preds = %56
  store ptr %59, ptr %15, align 8, !tbaa !48
  %61 = load ptr, ptr %15, align 8, !tbaa !48
  %62 = icmp eq ptr %61, null
  br i1 %62, label %63, label %78

63:                                               ; preds = %60
  %64 = load ptr, ptr %8, align 8, !tbaa !51
  store i32 7, ptr %64, align 4, !tbaa !28
  invoke void @_ZN6icu_776LocaleC1EPKcS2_S2_S2_(ptr noundef nonnull align 8 dereferenceable(217) %0, ptr noundef @.str.1, ptr noundef null, ptr noundef null, ptr noundef null)
          to label %65 unwind label %74

65:                                               ; preds = %63
  store i32 1, ptr %16, align 4
  br label %102

66:                                               ; preds = %41
  %67 = landingpad { ptr, i32 }
          cleanup
  %68 = extractvalue { ptr, i32 } %67, 0
  store ptr %68, ptr %11, align 8
  %69 = extractvalue { ptr, i32 } %67, 1
  store i32 %69, ptr %12, align 4
  call void @_ZN6icu_7714ConstChar16PtrD2Ev(ptr noundef nonnull align 8 dereferenceable(8) %10) #14
  br label %105

70:                                               ; preds = %49
  %71 = landingpad { ptr, i32 }
          cleanup
  %72 = extractvalue { ptr, i32 } %71, 0
  store ptr %72, ptr %11, align 8
  %73 = extractvalue { ptr, i32 } %71, 1
  store i32 %73, ptr %12, align 4
  br label %104

74:                                               ; preds = %85, %81, %79, %63, %56
  %75 = landingpad { ptr, i32 }
          cleanup
  %76 = extractvalue { ptr, i32 } %75, 0
  store ptr %76, ptr %11, align 8
  %77 = extractvalue { ptr, i32 } %75, 1
  store i32 %77, ptr %12, align 4
  br label %103

78:                                               ; preds = %60
  br label %79

79:                                               ; preds = %78, %51
  %80 = invoke noundef i32 @_ZNK6icu_7713UnicodeString6lengthEv(ptr noundef nonnull align 8 dereferenceable(64) %9)
          to label %81 unwind label %74

81:                                               ; preds = %79
  %82 = load ptr, ptr %15, align 8, !tbaa !48
  %83 = load i32, ptr %14, align 4, !tbaa !12
  %84 = invoke noundef i32 @_ZNK6icu_7713UnicodeString7extractEiiPciNS0_10EInvariantE(ptr noundef nonnull align 8 dereferenceable(64) %9, i32 noundef 0, i32 noundef %80, ptr noundef %82, i32 noundef %83, i32 noundef 0)
          to label %85 unwind label %74

85:                                               ; preds = %81
  store i1 false, ptr %17, align 1
  %86 = load ptr, ptr %15, align 8, !tbaa !48
  invoke void @_ZN6icu_776LocaleC1EPKcS2_S2_S2_(ptr noundef nonnull align 8 dereferenceable(217) %0, ptr noundef %86, ptr noundef null, ptr noundef null, ptr noundef null)
          to label %87 unwind label %74

87:                                               ; preds = %85
  %88 = load ptr, ptr %15, align 8, !tbaa !48
  %89 = getelementptr inbounds [64 x i8], ptr %13, i64 0, i64 0
  %90 = icmp ne ptr %88, %89
  br i1 %90, label %91, label %98

91:                                               ; preds = %87
  %92 = load ptr, ptr %15, align 8, !tbaa !48
  invoke void @uprv_free_77(ptr noundef %92)
          to label %93 unwind label %94

93:                                               ; preds = %91
  br label %98

94:                                               ; preds = %91
  %95 = landingpad { ptr, i32 }
          cleanup
  %96 = extractvalue { ptr, i32 } %95, 0
  store ptr %96, ptr %11, align 8
  %97 = extractvalue { ptr, i32 } %95, 1
  store i32 %97, ptr %12, align 4
  call void @_ZN6icu_776LocaleD1Ev(ptr noundef nonnull align 8 dereferenceable(217) %0) #14
  br label %103

98:                                               ; preds = %93, %87
  store i1 true, ptr %17, align 1
  store i32 1, ptr %16, align 4
  %99 = load i1, ptr %17, align 1
  br i1 %99, label %101, label %100

100:                                              ; preds = %98
  call void @_ZN6icu_776LocaleD1Ev(ptr noundef nonnull align 8 dereferenceable(217) %0) #14
  br label %101

101:                                              ; preds = %100, %98
  br label %102

102:                                              ; preds = %101, %65
  call void @llvm.lifetime.end.p0(i64 8, ptr %15) #14
  call void @llvm.lifetime.end.p0(i64 4, ptr %14) #14
  call void @llvm.lifetime.end.p0(i64 64, ptr %13) #14
  call void @_ZN6icu_7713UnicodeStringD1Ev(ptr noundef nonnull align 8 dereferenceable(64) %9) #14
  call void @llvm.lifetime.end.p0(i64 64, ptr %9) #14
  br label %111

103:                                              ; preds = %94, %74
  call void @llvm.lifetime.end.p0(i64 8, ptr %15) #14
  br label %104

104:                                              ; preds = %103, %70
  call void @llvm.lifetime.end.p0(i64 4, ptr %14) #14
  call void @llvm.lifetime.end.p0(i64 64, ptr %13) #14
  call void @_ZN6icu_7713UnicodeStringD1Ev(ptr noundef nonnull align 8 dereferenceable(64) %9) #14
  br label %105

105:                                              ; preds = %104, %66
  call void @llvm.lifetime.end.p0(i64 64, ptr %9) #14
  br label %112

106:                                              ; preds = %32, %29, %25
  %107 = load ptr, ptr %8, align 8, !tbaa !51
  store i32 1, ptr %107, align 4, !tbaa !28
  store i1 false, ptr %18, align 1
  call void @_ZN6icu_776LocaleC1Ev(ptr noundef nonnull align 8 dereferenceable(217) %0)
  store i1 true, ptr %18, align 1
  store i32 1, ptr %16, align 4
  %108 = load i1, ptr %18, align 1
  br i1 %108, label %110, label %109

109:                                              ; preds = %106
  call void @_ZN6icu_776LocaleD1Ev(ptr noundef nonnull align 8 dereferenceable(217) %0) #14
  br label %110

110:                                              ; preds = %109, %106
  br label %111

111:                                              ; preds = %110, %102, %24
  ret void

112:                                              ; preds = %105
  %113 = load ptr, ptr %11, align 8
  %114 = load i32, ptr %12, align 4
  %115 = insertvalue { ptr, i32 } poison, ptr %113, 0
  %116 = insertvalue { ptr, i32 } %115, i32 %114, 1
  resume { ptr, i32 } %116
}