; Function Attrs: mustprogress uwtable
define void @_ZNK6icu_7721RuleBasedNumberFormat27getRuleSetDisplayNameLocaleEiR10UErrorCode(ptr dead_on_unwind noalias writable sret(%"class.icu_77::Locale") align 8 %0, ptr noundef nonnull readonly align 8 captures(none) dereferenceable(456) %1, i32 noundef %2, ptr noundef nonnull align 4 captures(none) dereferenceable(4) %3) unnamed_addr #3 align 2 personality ptr @__gxx_personality_v0 {
  %5 = alloca %"class.icu_77::UnicodeString", align 8
  %6 = alloca %"class.icu_77::ConstChar16Ptr", align 8
  %7 = alloca [64 x i8], align 16
  %8 = load i32, ptr %3, align 4, !tbaa !19
  %9 = icmp slt i32 %8, 1
  br i1 %9, label %11, label %10

10:                                               ; preds = %4
  tail call void @_ZN6icu_776LocaleC1EPKcS2_S2_S2_(ptr noundef nonnull align 8 dereferenceable(217) %0, ptr noundef nonnull @.str.1, ptr noundef null, ptr noundef null, ptr noundef null)
  br label %66

11:                                               ; preds = %4
  %12 = getelementptr inbounds nuw i8, ptr %1, i64 368
  %13 = load ptr, ptr %12, align 8, !tbaa !91
  %14 = icmp ne ptr %13, null
  %15 = icmp sgt i32 %2, -1
  %or.cond = and i1 %15, %14
  br i1 %or.cond, label %16, label %65

16:                                               ; preds = %11
  %17 = load ptr, ptr %13, align 8, !tbaa !3
  %18 = getelementptr inbounds nuw i8, ptr %17, i64 40
  %19 = load ptr, ptr %18, align 8
  %20 = tail call noundef i32 %19(ptr noundef nonnull align 8 dereferenceable(12) %13)
  %21 = icmp slt i32 %2, %20
  br i1 %21, label %22, label %65

22:                                               ; preds = %16
  call void @llvm.lifetime.start.p0(i64 64, ptr nonnull %5) #21
  %23 = load ptr, ptr %12, align 8, !tbaa !91
  %24 = load ptr, ptr %23, align 8, !tbaa !3
  %25 = getelementptr inbounds nuw i8, ptr %24, i64 48
  %26 = load ptr, ptr %25, align 8
  %27 = tail call noundef ptr %26(ptr noundef nonnull align 8 dereferenceable(12) %23, i32 noundef %2)
  store ptr %27, ptr %6, align 8, !tbaa !100
  invoke void @_ZN6icu_7713UnicodeStringC1EaNS_14ConstChar16PtrEi(ptr noundef nonnull align 8 dereferenceable(64) %5, i8 noundef signext 1, ptr noundef nonnull %6, i32 noundef -1)
          to label %28 unwind label %46

28:                                               ; preds = %22
  %29 = load ptr, ptr %6, align 8, !tbaa !100
  call void asm sideeffect "", "rm,~{memory},~{dirflag},~{fpsr},~{flags}"(ptr %29) #21, !srcloc !102
  call void @llvm.lifetime.start.p0(i64 64, ptr nonnull %7) #21
  %30 = getelementptr inbounds nuw i8, ptr %5, i64 8
  %31 = load i16, ptr %30, align 8, !tbaa !55
  %32 = icmp slt i16 %31, 0
  %33 = ashr i16 %31, 5
  %34 = sext i16 %33 to i32
  %35 = getelementptr inbounds nuw i8, ptr %5, i64 12
  %36 = load i32, ptr %35, align 4
  %37 = select i1 %32, i32 %36, i32 %34
  %38 = add nsw i32 %37, 1
  %39 = icmp sgt i32 %37, 63
  br i1 %39, label %40, label %51

40:                                               ; preds = %28
  %41 = zext nneg i32 %38 to i64
  %42 = invoke noalias ptr @uprv_malloc_77(i64 noundef %41) #22
          to label %43 unwind label %49

43:                                               ; preds = %40
  %44 = icmp eq ptr %42, null
  br i1 %44, label %45, label %._crit_edge

._crit_edge:                                      ; preds = %43
  %.pre = load i16, ptr %30, align 8, !tbaa !55
  %.pre31 = load i32, ptr %35, align 4
  %.pre32 = ashr i16 %.pre, 5
  %.pre33 = sext i16 %.pre32 to i32
  br label %51

45:                                               ; preds = %43
  store i32 7, ptr %3, align 4, !tbaa !19
  invoke void @_ZN6icu_776LocaleC1EPKcS2_S2_S2_(ptr noundef nonnull align 8 dereferenceable(217) %0, ptr noundef nonnull @.str.1, ptr noundef null, ptr noundef null, ptr noundef null)
          to label %62 unwind label %49

46:                                               ; preds = %22
  %47 = landingpad { ptr, i32 }
          cleanup
  %48 = load ptr, ptr %6, align 8, !tbaa !100
  call void asm sideeffect "", "rm,~{memory},~{dirflag},~{fpsr},~{flags}"(ptr %48) #21, !srcloc !102
  br label %64

49:                                               ; preds = %57, %51, %45, %40
  %50 = landingpad { ptr, i32 }
          cleanup
  br label %63

51:                                               ; preds = %._crit_edge, %28
  %.pre-phi34 = phi i32 [ %.pre33, %._crit_edge ], [ %34, %28 ]
  %52 = phi i32 [ %.pre31, %._crit_edge ], [ %36, %28 ]
  %53 = phi i16 [ %.pre, %._crit_edge ], [ %31, %28 ]
  %.019 = phi ptr [ %42, %._crit_edge ], [ %7, %28 ]
  %54 = icmp slt i16 %53, 0
  %55 = select i1 %54, i32 %52, i32 %.pre-phi34
  %56 = invoke noundef i32 @_ZNK6icu_7713UnicodeString7extractEiiPciNS0_10EInvariantE(ptr noundef nonnull align 8 dereferenceable(64) %5, i32 noundef 0, i32 noundef %55, ptr noundef nonnull %.019, i32 noundef %38, i32 noundef 0)
          to label %57 unwind label %49

57:                                               ; preds = %51
  invoke void @_ZN6icu_776LocaleC1EPKcS2_S2_S2_(ptr noundef nonnull align 8 dereferenceable(217) %0, ptr noundef nonnull %.019, ptr noundef null, ptr noundef null, ptr noundef null)
          to label %58 unwind label %49

58:                                               ; preds = %57
  %.not27 = icmp eq ptr %.019, %7
  br i1 %.not27, label %62, label %59

59:                                               ; preds = %58
  invoke void @uprv_free_77(ptr noundef nonnull %.019)
          to label %62 unwind label %60

60:                                               ; preds = %59
  %61 = landingpad { ptr, i32 }
          cleanup
  call void @_ZN6icu_776LocaleD1Ev(ptr noundef nonnull align 8 dereferenceable(217) %0) #21
  br label %63

62:                                               ; preds = %58, %59, %45
  call void @llvm.lifetime.end.p0(i64 64, ptr nonnull %7) #21
  call void @_ZN6icu_7713UnicodeStringD1Ev(ptr noundef nonnull align 8 dereferenceable(64) %5) #21
  call void @llvm.lifetime.end.p0(i64 64, ptr nonnull %5) #21
  br label %66

63:                                               ; preds = %49, %60
  %.pn.pn = phi { ptr, i32 } [ %50, %49 ], [ %61, %60 ]
  call void @llvm.lifetime.end.p0(i64 64, ptr nonnull %7) #21
  call void @_ZN6icu_7713UnicodeStringD1Ev(ptr noundef nonnull align 8 dereferenceable(64) %5) #21
  br label %64

64:                                               ; preds = %63, %46
  %.pn.pn.pn = phi { ptr, i32 } [ %.pn.pn, %63 ], [ %47, %46 ]
  call void @llvm.lifetime.end.p0(i64 64, ptr nonnull %5) #21
  resume { ptr, i32 } %.pn.pn.pn

65:                                               ; preds = %16, %11
  store i32 1, ptr %3, align 4, !tbaa !19
  tail call void @_ZN6icu_776LocaleC1Ev(ptr noundef nonnull align 8 dereferenceable(217) %0)
  br label %66

66:                                               ; preds = %65, %62, %10
  ret void
}